target datalayout = "e-m:e-p270:32:32-p271:32:32-p272:64:64-i64:64-i128:128-f80:128-n8:16:32:64-S128"
target triple = "x86_64-pc-linux-gnu"

%class.ptr_vector = type { %class.vector }
%class.vector = type { ptr }
%"struct.array::solver::var_data" = type { i8, i8, %class.ptr_vector, %class.ptr_vector, %class.ptr_vector }
%struct.theory_array_params = type <{ i8, i8, [2 x i8], i32, i8, i8, [2 x i8], i32, i8, i8, i8, i8, i32, i8, [3 x i8] }>

; Function Attrs: mustprogress nounwind uwtable
define linkonce_odr hidden noundef i32 @_ZNK6vectorIPN3euf5enodeELb0EjE4sizeEv(ptr noundef nonnull align 8 dereferenceable(8) %0) #6 comdat align 2 {
  %2 = alloca i32, align 4
  %3 = alloca ptr, align 8
  store ptr %0, ptr %3, align 8, !tbaa !144
  %4 = load ptr, ptr %3, align 8
  %5 = getelementptr inbounds nuw %class.vector, ptr %4, i32 0, i32 0
  %6 = load ptr, ptr %5, align 8, !tbaa !347
  %7 = icmp eq ptr %6, null
  br i1 %7, label %8, label %9

8:                                                ; preds = %1
  store i32 0, ptr %2, align 4
  br label %14

9:                                                ; preds = %1
  %10 = getelementptr inbounds nuw %class.vector, ptr %4, i32 0, i32 0
  %11 = load ptr, ptr %10, align 8, !tbaa !347
  %12 = getelementptr inbounds i32, ptr %11, i64 -1
  %13 = load i32, ptr %12, align 4, !tbaa !10
  store i32 %13, ptr %2, align 4
  br label %14

14:                                               ; preds = %9, %8
  %15 = load i32, ptr %2, align 4
  ret i32 %15
}

; Function Attrs: mustprogress uwtable
define hidden noundef i32 @_ZNK5array6solver21get_lambda_equiv_sizeERKNS0_8var_dataE(ptr noundef nonnull align 8 dereferenceable(536) %0, ptr noundef nonnull align 8 dereferenceable(32) %1) #4 align 2 {
  %3 = alloca ptr, align 8
  %4 = alloca ptr, align 8
  store ptr %0, ptr %3, align 8, !tbaa !3
  store ptr %1, ptr %4, align 8, !tbaa !168
  %5 = load ptr, ptr %4, align 8, !tbaa !168
  %6 = getelementptr inbounds nuw %"struct.array::solver::var_data", ptr %5, i32 0, i32 4
  %7 = call noundef i32 @_ZNK6vectorIPN3euf5enodeELb0EjE4sizeEv(ptr noundef nonnull align 8 dereferenceable(8) %6)
  %8 = load ptr, ptr %4, align 8, !tbaa !168
  %9 = getelementptr inbounds nuw %"struct.array::solver::var_data", ptr %8, i32 0, i32 2
  %10 = call noundef i32 @_ZNK6vectorIPN3euf5enodeELb0EjE4sizeEv(ptr noundef nonnull align 8 dereferenceable(8) %9)
  %11 = mul i32 2, %10
  %12 = add i32 %7, %11
  ret i32 %12
}

; Function Attrs: mustprogress uwtable
define hidden noundef zeroext i1 @_ZNK5array6solver22should_set_prop_upwardERKNS0_8var_dataE(ptr noundef nonnull align 8 dereferenceable(536) %0, ptr noundef nonnull align 8 dereferenceable(32) %1) #4 align 2 {
  %3 = alloca ptr, align 8
  %4 = alloca ptr, align 8
  store ptr %0, ptr %3, align 8, !tbaa !3
  store ptr %1, ptr %4, align 8, !tbaa !168
  %5 = load ptr, ptr %3, align 8
  %6 = call noundef nonnull align 8 dereferenceable(808) ptr @_ZNK3euf13th_euf_solver10get_configEv(ptr noundef nonnull align 8 dereferenceable(108) %5)
  %7 = getelementptr inbounds i8, ptr %6, i64 396
  %8 = getelementptr inbounds nuw %struct.theory_array_params, ptr %7, i32 0, i32 10
  %9 = load i8, ptr %8, align 2, !tbaa !350, !range !157, !noundef !158
  %10 = trunc i8 %9 to i1
  br i1 %10, label %15, label %11

11:                                               ; preds = %2
  %12 = load ptr, ptr %4, align 8, !tbaa !168
  %13 = call noundef i32 @_ZNK5array6solver21get_lambda_equiv_sizeERKNS0_8var_dataE(ptr noundef nonnull align 8 dereferenceable(536) %5, ptr noundef nonnull align 8 dereferenceable(32) %12)
  %14 = icmp uge i32 %13, 1
  br label %15

15:                                               ; preds = %11, %2
  %16 = phi i1 [ true, %2 ], [ %14, %11 ]
  ret i1 %16
}