; Function Attrs: mustprogress uwtable
define hidden noundef zeroext i1 @_ZNK5array6solver22should_set_prop_upwardERKNS0_8var_dataE(ptr noundef nonnull align 8 dereferenceable(536) %0, ptr noundef nonnull readonly align 8 captures(none) dereferenceable(32) %1) local_unnamed_addr #3 align 2 {
  %3 = tail call noundef nonnull align 8 dereferenceable(808) ptr @_ZNK3euf13th_euf_solver10get_configEv(ptr noundef nonnull align 8 dereferenceable(108) %0)
  %4 = getelementptr inbounds nuw i8, ptr %3, i64 414
  %5 = load i8, ptr %4, align 2, !tbaa !385, !range !166, !noundef !167
  %6 = trunc nuw i8 %5 to i1
  br i1 %6, label %23, label %7

7:                                                ; preds = %2
  %8 = getelementptr inbounds nuw i8, ptr %1, i64 24
  %9 = load ptr, ptr %8, align 8, !tbaa !135
  %10 = icmp eq ptr %9, null
  br i1 %10, label %_ZNK6vectorIPN3euf5enodeELb0EjE4sizeEv.exit.i, label %11

11:                                               ; preds = %7
  %12 = getelementptr inbounds i8, ptr %9, i64 -4
  %13 = load i32, ptr %12, align 4, !tbaa !140
  br label %_ZNK6vectorIPN3euf5enodeELb0EjE4sizeEv.exit.i

_ZNK6vectorIPN3euf5enodeELb0EjE4sizeEv.exit.i:    ; preds = %11, %7
  %.0.i.i = phi i32 [ %13, %11 ], [ 0, %7 ]
  %14 = getelementptr inbounds nuw i8, ptr %1, i64 8
  %15 = load ptr, ptr %14, align 8, !tbaa !135
  %16 = icmp eq ptr %15, null
  br i1 %16, label %_ZNK5array6solver21get_lambda_equiv_sizeERKNS0_8var_dataE.exit, label %17

17:                                               ; preds = %_ZNK6vectorIPN3euf5enodeELb0EjE4sizeEv.exit.i
  %18 = getelementptr inbounds i8, ptr %15, i64 -4
  %19 = load i32, ptr %18, align 4, !tbaa !140
  %20 = shl i32 %19, 1
  br label %_ZNK5array6solver21get_lambda_equiv_sizeERKNS0_8var_dataE.exit

_ZNK5array6solver21get_lambda_equiv_sizeERKNS0_8var_dataE.exit: ; preds = %_ZNK6vectorIPN3euf5enodeELb0EjE4sizeEv.exit.i, %17
  %.0.i2.i = phi i32 [ %20, %17 ], [ 0, %_ZNK6vectorIPN3euf5enodeELb0EjE4sizeEv.exit.i ]
  %21 = sub i32 0, %.0.i.i
  %22 = icmp ne i32 %.0.i2.i, %21
  br label %23

23:                                               ; preds = %_ZNK5array6solver21get_lambda_equiv_sizeERKNS0_8var_dataE.exit, %2
  %24 = phi i1 [ true, %2 ], [ %22, %_ZNK5array6solver21get_lambda_equiv_sizeERKNS0_8var_dataE.exit ]
  ret i1 %24
}